; Function Attrs: nounwind sspstrong uwtable
define internal range(i64 1, 0) i64 @rb_zstream_data_type(i64 noundef %0) #0 {
  %2 = tail call ptr @rb_check_typeddata(i64 noundef %0, ptr noundef nonnull @zstream_data_type) #18
  %3 = load i64, ptr %2, align 8, !tbaa !42
  %4 = and i64 %3, 1
  %.not.i = icmp eq i64 %4, 0
  br i1 %.not.i, label %5, label %get_zstream.exit

5:                                                ; preds = %1
  %6 = load i64, ptr @cZError, align 8, !tbaa !6
  tail call void (i64, ptr, ...) @rb_raise(i64 noundef %6, ptr noundef nonnull @.str.150) #19
  unreachable

get_zstream.exit:                                 ; preds = %1
  %7 = getelementptr inbounds nuw i8, ptr %2, i64 120
  %8 = load i32, ptr %7, align 8, !tbaa !54
  %9 = sext i32 %8 to i64
  %10 = shl nsw i64 %9, 1
  %11 = or disjoint i64 %10, 1
  ret i64 %11
}